target datalayout = "e-m:e-p270:32:32-p271:32:32-p272:64:64-i64:64-i128:128-f80:128-n8:16:32:64-S128"
target triple = "x86_64-unknown-linux-gnu"

%struct.UStringSearch = type { ptr, %struct.UPattern, ptr, ptr, ptr, ptr, ptr, i8, i32, i32, i32, i8 }
%struct.UPattern = type { ptr, i32, i32, ptr, [256 x i32], i32, ptr, [256 x i64], i8, i8 }
%struct.USearch = type { ptr, i32, i8, i8, i16, ptr, ptr, i32, i32, i8, i8 }

; Function Attrs: mustprogress nounwind uwtable
define internal noundef signext i8 @_ZL9U_SUCCESS10UErrorCode(i32 noundef %code) #1 {
entry:
  %code.addr = alloca i32, align 4
  store i32 %code, ptr %code.addr, align 4
  %0 = load i32, ptr %code.addr, align 4
  %cmp = icmp sle i32 %0, 0
  %conv = zext i1 %cmp to i8
  ret i8 %conv
}

; Function Attrs: mustprogress uwtable
define void @usearch_setAttribute_75(ptr noundef %strsrch, i32 noundef %attribute, i32 noundef %value, ptr noundef %status) #0 {
entry:
  %strsrch.addr = alloca ptr, align 8
  %attribute.addr = alloca i32, align 4
  %value.addr = alloca i32, align 4
  %status.addr = alloca ptr, align 8
  store ptr %strsrch, ptr %strsrch.addr, align 8
  store i32 %attribute, ptr %attribute.addr, align 4
  store i32 %value, ptr %value.addr, align 4
  store ptr %status, ptr %status.addr, align 8
  %0 = load ptr, ptr %status.addr, align 8
  %1 = load i32, ptr %0, align 4
  %call = call noundef signext i8 @_ZL9U_SUCCESS10UErrorCode(i32 noundef %1)
  %tobool = icmp ne i8 %call, 0
  br i1 %tobool, label %land.lhs.true, label %if.end16

land.lhs.true:                                    ; preds = %entry
  %2 = load ptr, ptr %strsrch.addr, align 8
  %tobool1 = icmp ne ptr %2, null
  br i1 %tobool1, label %if.then, label %if.end16

if.then:                                          ; preds = %land.lhs.true
  %3 = load i32, ptr %attribute.addr, align 4
  switch i32 %3, label %sw.default [
    i32 0, label %sw.bb
    i32 1, label %sw.bb2
    i32 2, label %sw.bb7
    i32 3, label %sw.bb15
  ]

sw.bb:                                            ; preds = %if.then
  %4 = load i32, ptr %value.addr, align 4
  %cmp = icmp eq i32 %4, 1
  %cond = select i1 %cmp, i1 true, i1 false
  %conv = zext i1 %cond to i8
  %5 = load ptr, ptr %strsrch.addr, align 8
  %search = getelementptr inbounds %struct.UStringSearch, ptr %5, i32 0, i32 0
  %6 = load ptr, ptr %search, align 8
  %isOverlap = getelementptr inbounds %struct.USearch, ptr %6, i32 0, i32 2
  store i8 %conv, ptr %isOverlap, align 4
  br label %sw.epilog

sw.bb2:                                           ; preds = %if.then
  %7 = load i32, ptr %value.addr, align 4
  %cmp3 = icmp eq i32 %7, 1
  %cond4 = select i1 %cmp3, i1 true, i1 false
  %conv5 = zext i1 %cond4 to i8
  %8 = load ptr, ptr %strsrch.addr, align 8
  %search6 = getelementptr inbounds %struct.UStringSearch, ptr %8, i32 0, i32 0
  %9 = load ptr, ptr %search6, align 8
  %isCanonicalMatch = getelementptr inbounds %struct.USearch, ptr %9, i32 0, i32 3
  store i8 %conv5, ptr %isCanonicalMatch, align 1
  br label %sw.epilog

sw.bb7:                                           ; preds = %if.then
  %10 = load i32, ptr %value.addr, align 4
  %cmp8 = icmp eq i32 %10, 3
  br i1 %cmp8, label %if.then10, label %lor.lhs.false

lor.lhs.false:                                    ; preds = %sw.bb7
  %11 = load i32, ptr %value.addr, align 4
  %cmp9 = icmp eq i32 %11, 4
  br i1 %cmp9, label %if.then10, label %if.else

if.then10:                                        ; preds = %lor.lhs.false, %sw.bb7
  %12 = load i32, ptr %value.addr, align 4
  %conv11 = trunc i32 %12 to i16
  %13 = load ptr, ptr %strsrch.addr, align 8
  %search12 = getelementptr inbounds %struct.UStringSearch, ptr %13, i32 0, i32 0
  %14 = load ptr, ptr %search12, align 8
  %elementComparisonType = getelementptr inbounds %struct.USearch, ptr %14, i32 0, i32 4
  store i16 %conv11, ptr %elementComparisonType, align 2
  br label %if.end

if.else:                                          ; preds = %lor.lhs.false
  %15 = load ptr, ptr %strsrch.addr, align 8
  %search13 = getelementptr inbounds %struct.UStringSearch, ptr %15, i32 0, i32 0
  %16 = load ptr, ptr %search13, align 8
  %elementComparisonType14 = getelementptr inbounds %struct.USearch, ptr %16, i32 0, i32 4
  store i16 0, ptr %elementComparisonType14, align 2
  br label %if.end

if.end:                                           ; preds = %if.else, %if.then10
  br label %sw.epilog

sw.bb15:                                          ; preds = %if.then
  br label %sw.default

sw.default:                                       ; preds = %sw.bb15, %if.then
  %17 = load ptr, ptr %status.addr, align 8
  store i32 1, ptr %17, align 4
  br label %sw.epilog

sw.epilog:                                        ; preds = %sw.default, %if.end, %sw.bb2, %sw.bb
  br label %if.end16

if.end16:                                         ; preds = %sw.epilog, %land.lhs.true, %entry
  %18 = load i32, ptr %value.addr, align 4
  %cmp17 = icmp eq i32 %18, 5
  br i1 %cmp17, label %if.then18, label %if.end19

if.then18:                                        ; preds = %if.end16
  %19 = load ptr, ptr %status.addr, align 8
  store i32 1, ptr %19, align 4
  br label %if.end19

if.end19:                                         ; preds = %if.then18, %if.end16
  ret void
}