; Function Attrs: mustprogress nofree norecurse nosync nounwind willreturn memory(write, argmem: readwrite, inaccessiblemem: none) uwtable
define void @usearch_setAttribute_75(ptr noundef readonly %strsrch, i32 noundef %attribute, i32 noundef %value, ptr nocapture noundef %status) local_unnamed_addr #4 {
entry:
  %0 = load i32, ptr %status, align 4
  %cmp.i = icmp slt i32 %0, 1
  %tobool1 = icmp ne ptr %strsrch, null
  %or.cond = and i1 %tobool1, %cmp.i
  br i1 %or.cond, label %if.then, label %if.end16

if.then:                                          ; preds = %entry
  switch i32 %attribute, label %sw.default [
    i32 0, label %sw.bb
    i32 1, label %sw.bb2
    i32 2, label %sw.bb7
  ]

sw.bb:                                            ; preds = %if.then
  %cmp = icmp eq i32 %value, 1
  %conv = zext i1 %cmp to i8
  %1 = load ptr, ptr %strsrch, align 8
  %isOverlap = getelementptr inbounds i8, ptr %1, i64 12
  store i8 %conv, ptr %isOverlap, align 4
  br label %if.end16

sw.bb2:                                           ; preds = %if.then
  %cmp3 = icmp eq i32 %value, 1
  %conv5 = zext i1 %cmp3 to i8
  %2 = load ptr, ptr %strsrch, align 8
  %isCanonicalMatch = getelementptr inbounds i8, ptr %2, i64 13
  store i8 %conv5, ptr %isCanonicalMatch, align 1
  br label %if.end16

sw.bb7:                                           ; preds = %if.then
  %3 = add i32 %value, -3
  %or.cond1 = icmp ult i32 %3, 2
  br i1 %or.cond1, label %if.end16.thread, label %if.else

if.end16.thread:                                  ; preds = %sw.bb7
  %conv11 = trunc i32 %value to i16
  %4 = load ptr, ptr %strsrch, align 8
  %elementComparisonType = getelementptr inbounds i8, ptr %4, i64 14
  store i16 %conv11, ptr %elementComparisonType, align 2
  br label %if.end19

if.else:                                          ; preds = %sw.bb7
  %5 = load ptr, ptr %strsrch, align 8
  %elementComparisonType14 = getelementptr inbounds i8, ptr %5, i64 14
  store i16 0, ptr %elementComparisonType14, align 2
  br label %if.end16

sw.default:                                       ; preds = %if.then
  store i32 1, ptr %status, align 4
  br label %if.end16

if.end16:                                         ; preds = %sw.bb, %sw.bb2, %sw.default, %if.else, %entry
  %cmp17 = icmp eq i32 %value, 5
  br i1 %cmp17, label %if.then18, label %if.end19

if.then18:                                        ; preds = %if.end16
  store i32 1, ptr %status, align 4
  br label %if.end19

if.end19:                                         ; preds = %if.end16.thread, %if.then18, %if.end16
  ret void
}